; Function Attrs: mustprogress nofree norecurse nosync nounwind memory(readwrite, inaccessiblemem: none) uwtable
define hidden void @_ZN16BCEscapeAnalyzer17set_method_escapeENS_11ArgumentMapE(ptr nocapture noundef nonnull align 8 dereferenceable(196) %0, i32 %1) local_unnamed_addr #3 align 2 {
  %3 = getelementptr inbounds i8, ptr %0, i64 40
  %4 = getelementptr inbounds i8, ptr %0, i64 32
  %5 = load i32, ptr %4, align 8
  %6 = icmp sgt i32 %5, 0
  br i1 %6, label %.lr.ph.i, label %_ZN16BCEscapeAnalyzer10clear_bitsENS_11ArgumentMapER9VectorSet.exit

.lr.ph.i:                                         ; preds = %2
  %7 = getelementptr inbounds i8, ptr %0, i64 48
  br label %8

8:                                                ; preds = %_ZN9VectorSet6removeEj.exit.i, %.lr.ph.i
  %9 = phi i32 [ %5, %.lr.ph.i ], [ %24, %_ZN9VectorSet6removeEj.exit.i ]
  %.05.i = phi i32 [ 0, %.lr.ph.i ], [ %25, %_ZN9VectorSet6removeEj.exit.i ]
  %spec.store.select.i.i.i = tail call i32 @llvm.umin.i32(i32 %.05.i, i32 29)
  %10 = shl nuw i32 4, %spec.store.select.i.i.i
  %11 = and i32 %10, %1
  %.not.i = icmp eq i32 %11, 0
  br i1 %.not.i, label %_ZN9VectorSet6removeEj.exit.i, label %12

12:                                               ; preds = %8
  %13 = lshr i32 %.05.i, 5
  %14 = load i32, ptr %3, align 8
  %.not.i.i = icmp ult i32 %13, %14
  br i1 %.not.i.i, label %15, label %_ZN9VectorSet6removeEj.exit.i

15:                                               ; preds = %12
  %16 = and i32 %.05.i, 31
  %17 = shl nuw i32 1, %16
  %18 = xor i32 %17, -1
  %19 = load ptr, ptr %7, align 8
  %20 = zext nneg i32 %13 to i64
  %21 = getelementptr inbounds i32, ptr %19, i64 %20
  %22 = load i32, ptr %21, align 4
  %23 = and i32 %22, %18
  store i32 %23, ptr %21, align 4
  %.pre.i = load i32, ptr %4, align 8
  br label %_ZN9VectorSet6removeEj.exit.i

_ZN9VectorSet6removeEj.exit.i:                    ; preds = %15, %12, %8
  %24 = phi i32 [ %.pre.i, %15 ], [ %9, %12 ], [ %9, %8 ]
  %25 = add nuw nsw i32 %.05.i, 1
  %26 = icmp slt i32 %25, %24
  br i1 %26, label %8, label %_ZN16BCEscapeAnalyzer10clear_bitsENS_11ArgumentMapER9VectorSet.exit, !llvm.loop !11

_ZN16BCEscapeAnalyzer10clear_bitsENS_11ArgumentMapER9VectorSet.exit: ; preds = %_ZN9VectorSet6removeEj.exit.i, %2
  %27 = and i32 %1, 1
  %.not = icmp eq i32 %27, 0
  br i1 %.not, label %30, label %28

28:                                               ; preds = %_ZN16BCEscapeAnalyzer10clear_bitsENS_11ArgumentMapER9VectorSet.exit
  %29 = getelementptr inbounds i8, ptr %0, i64 146
  store i8 1, ptr %29, align 2
  br label %30

30:                                               ; preds = %28, %_ZN16BCEscapeAnalyzer10clear_bitsENS_11ArgumentMapER9VectorSet.exit
  ret void
}